; Function Attrs: mustprogress uwtable
define hidden noundef nonnull align 8 dereferenceable(8) ptr @_ZN7datalog15mk_rule_inliner7visitor12add_positionEP4exprj(ptr noundef nonnull align 8 dereferenceable(72) %this, ptr noundef %e, i32 noundef %j) local_unnamed_addr #3 align 2 personality ptr @__gxx_personality_v0 {
entry:
  %ref.tmp = alloca %class.svector.3, align 8
  %m_positions = getelementptr inbounds i8, ptr %this, i64 48
  store ptr null, ptr %ref.tmp, align 8
  %call = invoke noundef nonnull align 8 dereferenceable(8) ptr @_ZN7obj_mapI4expr7svectorIjjEE19insert_if_not_thereEPS0_RKS2_(ptr noundef nonnull align 8 dereferenceable(24) %m_positions, ptr noundef %e, ptr noundef nonnull align 8 dereferenceable(8) %ref.tmp)
          to label %invoke.cont unwind label %lpad

invoke.cont:                                      ; preds = %entry
  %0 = load ptr, ptr %ref.tmp, align 8
  %tobool.not.i.i.i = icmp eq ptr %0, null
  br i1 %tobool.not.i.i.i, label %_ZN7svectorIjjED2Ev.exit, label %if.then.i.i.i

if.then.i.i.i:                                    ; preds = %invoke.cont
  %add.ptr.i.i.i.i = getelementptr inbounds i8, ptr %0, i64 -8
  invoke void @_ZN6memory10deallocateEPv(ptr noundef nonnull %add.ptr.i.i.i.i)
          to label %_ZN7svectorIjjED2Ev.exit unwind label %terminate.lpad.i.i

terminate.lpad.i.i:                               ; preds = %if.then.i.i.i
  %1 = landingpad { ptr, i32 }
          catch ptr null
  %2 = extractvalue { ptr, i32 } %1, 0
  call void @__clang_call_terminate(ptr %2) #18
  unreachable

_ZN7svectorIjjED2Ev.exit:                         ; preds = %invoke.cont, %if.then.i.i.i
  %3 = load ptr, ptr %call, align 8
  %cmp.i = icmp eq ptr %3, null
  br i1 %cmp.i, label %if.then.i, label %lor.lhs.false.i

lor.lhs.false.i:                                  ; preds = %_ZN7svectorIjjED2Ev.exit
  %arrayidx.i = getelementptr inbounds i8, ptr %3, i64 -4
  %4 = load i32, ptr %arrayidx.i, align 4
  %arrayidx4.i = getelementptr inbounds i8, ptr %3, i64 -8
  %5 = load i32, ptr %arrayidx4.i, align 4
  %cmp5.i = icmp eq i32 %4, %5
  br i1 %cmp5.i, label %if.then.i, label %_ZN6vectorIjLb0EjE9push_backERKj.exit

if.then.i:                                        ; preds = %lor.lhs.false.i, %_ZN7svectorIjjED2Ev.exit
  call void @_ZN6vectorIjLb0EjE13expand_vectorEv(ptr noundef nonnull align 8 dereferenceable(8) %call)
  %.pre.i = load ptr, ptr %call, align 8
  %arrayidx8.phi.trans.insert.i = getelementptr inbounds i8, ptr %.pre.i, i64 -4
  %.pre1.i = load i32, ptr %arrayidx8.phi.trans.insert.i, align 4
  br label %_ZN6vectorIjLb0EjE9push_backERKj.exit

_ZN6vectorIjLb0EjE9push_backERKj.exit:            ; preds = %lor.lhs.false.i, %if.then.i
  %6 = phi i32 [ %.pre1.i, %if.then.i ], [ %4, %lor.lhs.false.i ]
  %7 = phi ptr [ %.pre.i, %if.then.i ], [ %3, %lor.lhs.false.i ]
  %idx.ext.i = zext i32 %6 to i64
  %add.ptr.i = getelementptr inbounds i32, ptr %7, i64 %idx.ext.i
  store i32 %j, ptr %add.ptr.i, align 4
  %8 = load ptr, ptr %call, align 8
  %arrayidx10.i = getelementptr inbounds i8, ptr %8, i64 -4
  %9 = load i32, ptr %arrayidx10.i, align 4
  %inc.i = add i32 %9, 1
  store i32 %inc.i, ptr %arrayidx10.i, align 4
  ret ptr %call

lpad:                                             ; preds = %entry
  %10 = landingpad { ptr, i32 }
          cleanup
  call void @_ZN7svectorIjjED2Ev(ptr noundef nonnull align 8 dereferenceable(8) %ref.tmp) #19
  resume { ptr, i32 } %10
}